 0x000000000000000e (SONAME)             Library soname: [libsourse_lib.so]
__bss_start B
_edata D
_end B
_fini T
_init T
_ZdlPvS_ W 000000000000000f
_ZN12GeneratePath7getPathENSt7__cxx1112basic_stringIcSt11char_traitsIcESaIcEEE12VariantsPath T 0000000000000197
_ZN12GeneratePathC1Ev W 0000000000000272
_ZN12GeneratePathC2Ev W 0000000000000272
_ZN12GeneratePathD1Ev W 000000000000007f
_ZN12GeneratePathD2Ev W 000000000000007f
_ZN12MobileClient10unregisterERKNSt7__cxx1112basic_stringIcSt11char_traitsIcESaIcEEE T 0000000000000165
_ZN12MobileClient17getIncomingNumberB5cxx11Ev T 0000000000000030
_ZN12MobileClient17setIncomingNumberERKNSt7__cxx1112basic_stringIcSt11char_traitsIcESaIcEEE T 000000000000002d
_ZN12MobileClient18handleModuleChangeERKNSt7__cxx1112basic_stringIcSt11char_traitsIcESaIcEEES7_ T 0000000000000178
_ZN12MobileClient4callERKNSt7__cxx1112basic_stringIcSt11char_traitsIcESaIcEEE T 0000000000000642
_ZN12MobileClient6answerEv T 0000000000000489
_ZN12MobileClient6rejectEv T 000000000000071a
_ZN12MobileClient7callEndEv T 0000000000000607
_ZN12MobileClient7getNameB5cxx11Ev T 0000000000000030
_ZN12MobileClient7setNameERKNSt7__cxx1112basic_stringIcSt11char_traitsIcESaIcEEE T 00000000000000fd
_ZN12MobileClient8getStateEv T 0000000000000014
_ZN12MobileClient8RegisterERKNSt7__cxx1112basic_stringIcSt11char_traitsIcESaIcEEE T 000000000000044e
_ZN12MobileClient9getNumberB5cxx11Ev T 0000000000000030
_ZN12MobileClientC1ESt10unique_ptrI13INetConfAgentSt14default_deleteIS1_EE T 0000000000000094
_ZN12MobileClientC1Ev T 00000000000000a9
_ZN12MobileClientC2ESt10unique_ptrI13INetConfAgentSt14default_deleteIS1_EE T 0000000000000094
_ZN12MobileClientC2Ev T 00000000000000a9
_ZN12NetConfAgent10changeDataERKNSt7__cxx1112basic_stringIcSt11char_traitsIcESaIcEEES7_ T 00000000000000ba
_ZN12NetConfAgent10deleteDataERKNSt7__cxx1112basic_stringIcSt11char_traitsIcESaIcEEE T 000000000000004f
_ZN12NetConfAgent16registerOperDataERKNSt7__cxx1112basic_stringIcSt11char_traitsIcESaIcEEER12MobileClient T 00000000000001b5
_ZN12NetConfAgent23subscribeForModelChangeERKNSt7__cxx1112basic_stringIcSt11char_traitsIcESaIcEEER12MobileClient T 0000000000000179
_ZN12NetConfAgent9fetchDataERKNSt7__cxx1112basic_stringIcSt11char_traitsIcESaIcEEE T 00000000000001f9
_ZN12NetConfAgentC1Ev T 0000000000000181
_ZN12NetConfAgentC2Ev T 0000000000000181
_ZN12NetConfAgentD0Ev W 000000000000002b
_ZN12NetConfAgentD1Ev W 0000000000000081
_ZN12NetConfAgentD2Ev W 0000000000000081
_ZN13INetConfAgentC1Ev W 000000000000001d
_ZN13INetConfAgentC2Ev W 000000000000001d
_ZN13INetConfAgentD0Ev W 000000000000002b
_ZN13INetConfAgentD1Ev W 000000000000001d
_ZN13INetConfAgentD2Ev W 000000000000001d
_ZN13MobileService10unregisterEv T 00000000000000dc
_ZN13MobileService17processingCommandEv T 0000000000000260
_ZN13MobileService4callERNSt7__cxx1112basic_stringIcSt11char_traitsIcESaIcEEE T 0000000000000033
_ZN13MobileService4mainEv T 0000000000000075
_ZN13MobileService6answerEv T 0000000000000021
_ZN13MobileService6rejectEv T 0000000000000021
_ZN13MobileService7callEndEv T 0000000000000021
_ZN13MobileService7setNameERNSt7__cxx1112basic_stringIcSt11char_traitsIcESaIcEEE T 000000000000002d
_ZN13MobileService8RegisterERNSt7__cxx1112basic_stringIcSt11char_traitsIcESaIcEEE T 0000000000000033
_ZN7libyang10SchemaNodeD1Ev W 000000000000001f
_ZN7libyang10SchemaNodeD2Ev W 000000000000001f
_ZN7libyang12DataNodeTermD1Ev W 000000000000001b
_ZN7libyang12DataNodeTermD2Ev W 000000000000001b
_ZN7libyang6StringD1Ev W 000000000000001b
_ZN7libyang6StringD2Ev W 000000000000001b
_ZN7libyang7ContextD1Ev W 000000000000002b
_ZN7libyang7ContextD2Ev W 000000000000002b
_ZN7sysrepo10ConnectionD1Ev W 000000000000001b
_ZN7sysrepo10ConnectionD2Ev W 000000000000001b
_ZN7sysrepo12SubscriptionD1Ev W 000000000000007b
_ZN7sysrepo12SubscriptionD2Ev W 000000000000007b
_ZN7sysrepo14ChangeIteratorD1Ev W 000000000000003b
_ZN7sysrepo14ChangeIteratorD2Ev W 000000000000003b
_ZN7sysrepo16ChangeCollectionD1Ev W 000000000000002b
_ZN7sysrepo16ChangeCollectionD2Ev W 000000000000002b
_ZN7sysrepo6ChangeC1ERKS0_ W 0000000000000089
_ZN7sysrepo6ChangeC2ERKS0_ W 0000000000000089
_ZN7sysrepo6ChangeD1Ev W 000000000000001f
_ZN7sysrepo6ChangeD2Ev W 000000000000001f
_ZN7sysrepo7SessionC1EOS0_ W 0000000000000026
_ZN7sysrepo7SessionC2EOS0_ W 0000000000000026
_ZN7sysrepo7SessionD1Ev W 000000000000001b
_ZN7sysrepo7SessionD2Ev W 000000000000001b
_ZN7sysrepo8PrivDataISt8functionIFNS_9ErrorCodeENS_7SessionEjSt17basic_string_viewIcSt11char_traitsIcEEN7libyang8DataNodeENS_5EventEjS9_EEED1Ev W 000000000000001b
_ZN7sysrepo8PrivDataISt8functionIFNS_9ErrorCodeENS_7SessionEjSt17basic_string_viewIcSt11char_traitsIcEEN7libyang8DataNodeENS_5EventEjS9_EEED2Ev W 000000000000001b
_ZN7sysrepo8PrivDataISt8functionIFNS_9ErrorCodeENS_7SessionEjSt17basic_string_viewIcSt11char_traitsIcEESt8optionalIS7_ENS_5EventEjEEED1Ev W 000000000000001b
_ZN7sysrepo8PrivDataISt8functionIFNS_9ErrorCodeENS_7SessionEjSt17basic_string_viewIcSt11char_traitsIcEESt8optionalIS7_ENS_5EventEjEEED2Ev W 000000000000001b
_ZN7sysrepo8PrivDataISt8functionIFNS_9ErrorCodeENS_7SessionEjSt17basic_string_viewIcSt11char_traitsIcEESt8optionalIS7_ES9_jRS8_IN7libyang8DataNodeEEEEED1Ev W 000000000000001b
_ZN7sysrepo8PrivDataISt8functionIFNS_9ErrorCodeENS_7SessionEjSt17basic_string_viewIcSt11char_traitsIcEESt8optionalIS7_ES9_jRS8_IN7libyang8DataNodeEEEEED2Ev W 000000000000001b
_ZN7sysrepo8PrivDataISt8functionIFvNS_7SessionEjNS_16NotificationTypeESt8optionalIN7libyang8DataNodeEENSt6chrono10time_pointINS8_3_V212system_clockENS8_8durationIlSt5ratioILl1ELl1000000000EEEEEEEEED1Ev W 000000000000001b
_ZN7sysrepo8PrivDataISt8functionIFvNS_7SessionEjNS_16NotificationTypeESt8optionalIN7libyang8DataNodeEENSt6chrono10time_pointINS8_3_V212system_clockENS8_8durationIlSt5ratioILl1ELl1000000000EEEEEEEEED2Ev W 000000000000001b
_ZN9__gnu_cxx11char_traitsIcE2eqERKcS3_ W 0000000000000021
_ZN9__gnu_cxx11char_traitsIcE4copyEPcPKcm W 0000000000000039
_ZN9__gnu_cxx11char_traitsIcE4moveEPcPKcm W 00000000000000ae
_ZN9__gnu_cxx11char_traitsIcE6lengthEPKc W 0000000000000069
_ZN9__gnu_cxx13new_allocatorIcE10deallocateEPcm W 0000000000000029
_ZN9__gnu_cxx13new_allocatorIcE8allocateEmPKv W 000000000000003f
_ZN9__gnu_cxx13new_allocatorISt10_List_nodeIN7sysrepo8PrivDataISt8functionIFNS2_9ErrorCodeENS2_7SessionEjSt17basic_string_viewIcSt11char_traitsIcEEN7libyang8DataNodeENS2_5EventEjSC_EEEEEE10deallocateEPSH_m W 000000000000003a
_ZN9__gnu_cxx13new_allocatorISt10_List_nodeIN7sysrepo8PrivDataISt8functionIFNS2_9ErrorCodeENS2_7SessionEjSt17basic_string_viewIcSt11char_traitsIcEESt8optionalISA_ENS2_5EventEjEEEEEE10deallocateEPSH_m W 000000000000003a
_ZN9__gnu_cxx13new_allocatorISt10_List_nodeIN7sysrepo8PrivDataISt8functionIFNS2_9ErrorCodeENS2_7SessionEjSt17basic_string_viewIcSt11char_traitsIcEESt8optionalISA_ESC_jRSB_IN7libyang8DataNodeEEEEEEEE10deallocateEPSK_m W 000000000000003a
_ZN9__gnu_cxx13new_allocatorISt10_List_nodeIN7sysrepo8PrivDataISt8functionIFvNS2_7SessionEjNS2_16NotificationTypeESt8optionalIN7libyang8DataNodeEENSt6chrono10time_pointINSB_3_V212system_clockENSB_8durationIlSt5ratioILl1ELl1000000000EEEEEEEEEEEE10deallocateEPSN_m W 000000000000003a
_ZN9__gnu_cxx14__alloc_traitsISaIcEcE15_S_always_equalEv W 000000000000000b
_ZN9__gnu_cxx14__alloc_traitsISaIcEcE17_S_select_on_copyERKS1_ W 000000000000004c
_ZN9__gnu_cxx14__alloc_traitsISaIcEcE27_S_propagate_on_copy_assignEv W 000000000000000b
_ZN9__gnu_cxx14__alloc_traitsISaIcEcE27_S_propagate_on_move_assignEv W 000000000000000b
_ZN9__gnu_cxx16__aligned_membufIN7sysrepo8PrivDataISt8functionIFNS1_9ErrorCodeENS1_7SessionEjSt17basic_string_viewIcSt11char_traitsIcEEN7libyang8DataNodeENS1_5EventEjSB_EEEEE6_M_ptrEv W 000000000000001a
_ZN9__gnu_cxx16__aligned_membufIN7sysrepo8PrivDataISt8functionIFNS1_9ErrorCodeENS1_7SessionEjSt17basic_string_viewIcSt11char_traitsIcEEN7libyang8DataNodeENS1_5EventEjSB_EEEEE7_M_addrEv W 000000000000000e
_ZN9__gnu_cxx16__aligned_membufIN7sysrepo8PrivDataISt8functionIFNS1_9ErrorCodeENS1_7SessionEjSt17basic_string_viewIcSt11char_traitsIcEESt8optionalIS9_ENS1_5EventEjEEEEE6_M_ptrEv W 000000000000001a
_ZN9__gnu_cxx16__aligned_membufIN7sysrepo8PrivDataISt8functionIFNS1_9ErrorCodeENS1_7SessionEjSt17basic_string_viewIcSt11char_traitsIcEESt8optionalIS9_ENS1_5EventEjEEEEE7_M_addrEv W 000000000000000e
_ZN9__gnu_cxx16__aligned_membufIN7sysrepo8PrivDataISt8functionIFNS1_9ErrorCodeENS1_7SessionEjSt17basic_string_viewIcSt11char_traitsIcEESt8optionalIS9_ESB_jRSA_IN7libyang8DataNodeEEEEEEE6_M_ptrEv W 000000000000001a
_ZN9__gnu_cxx16__aligned_membufIN7sysrepo8PrivDataISt8functionIFNS1_9ErrorCodeENS1_7SessionEjSt17basic_string_viewIcSt11char_traitsIcEESt8optionalIS9_ESB_jRSA_IN7libyang8DataNodeEEEEEEE7_M_addrEv W 000000000000000e
_ZN9__gnu_cxx16__aligned_membufIN7sysrepo8PrivDataISt8functionIFvNS1_7SessionEjNS1_16NotificationTypeESt8optionalIN7libyang8DataNodeEENSt6chrono10time_pointINSA_3_V212system_clockENSA_8durationIlSt5ratioILl1ELl1000000000EEEEEEEEEEE6_M_ptrEv W 000000000000001a
_ZN9__gnu_cxx16__aligned_membufIN7sysrepo8PrivDataISt8functionIFvNS1_7SessionEjNS1_16NotificationTypeESt8optionalIN7libyang8DataNodeEENSt6chrono10time_pointINSA_3_V212system_clockENSA_8durationIlSt5ratioILl1ELl1000000000EEEEEEEEEEE7_M_addrEv W 000000000000000e
_ZN9__gnu_cxx17__is_null_pointerIcEEbPT_ W 0000000000000012
_ZN9__gnu_cxx17__is_null_pointerIKcEEbPT_ W 0000000000000012
_ZNK9__gnu_cxx13new_allocatorIcE11_M_max_sizeEv W 0000000000000014
_ZNKSt10unique_ptrI13INetConfAgentSt14default_deleteIS0_EE3getEv W 000000000000001a
_ZNKSt10unique_ptrI13INetConfAgentSt14default_deleteIS0_EEptEv W 000000000000001a
_ZNKSt14default_deleteI12NetConfAgentEclEPS0_ W 000000000000002b
_ZNKSt14default_deleteI13INetConfAgentEclEPS0_ W 000000000000002b
_ZNKSt14_Function_base8_M_emptyEv W 0000000000000018
_ZNKSt15__uniq_ptr_implI13INetConfAgentSt14default_deleteIS0_EE6_M_ptrEv W 000000000000001d
_ZNKSt16initializer_listIcE4sizeEv W 0000000000000012
_ZNKSt16initializer_listIcE5beginEv W 0000000000000011
_ZNKSt17basic_string_viewIcSt11char_traitsIcEE4dataEv W 0000000000000012
_ZNKSt17basic_string_viewIcSt11char_traitsIcEE4sizeEv W 0000000000000011
_ZNKSt19bad_optional_access4whatEv W 0000000000000011
_ZNKSt19_Optional_base_implIN7libyang8DataNodeESt14_Optional_baseIS1_Lb0ELb0EEE13_M_is_engagedEv W 0000000000000012
_ZNKSt19_Optional_base_implIN7sysrepo12SubscriptionESt14_Optional_baseIS1_Lb0ELb0EEE13_M_is_engagedEv W 0000000000000015
_ZNKSt22_Optional_payload_baseIN7libyang8DataNodeEE6_M_getEv W 000000000000000e
_ZNKSt4lessIPKcEclES1_S1_ W 0000000000000020
_ZNKSt7__cxx1112basic_stringIcSt11char_traitsIcESaIcEE11_M_disjunctEPKc W 00000000000000a2
_ZNKSt7__cxx1112basic_stringIcSt11char_traitsIcESaIcEE11_M_is_localEv W 0000000000000034
_ZNKSt7__cxx1112basic_stringIcSt11char_traitsIcESaIcEE13_M_local_dataEv W 000000000000001e
_ZNKSt7__cxx1112basic_stringIcSt11char_traitsIcESaIcEE15_M_check_lengthEmmPKc W 000000000000005f
_ZNKSt7__cxx1112basic_stringIcSt11char_traitsIcESaIcEE16_M_get_allocatorEv W 000000000000000e
_ZNKSt7__cxx1112basic_stringIcSt11char_traitsIcESaIcEE4sizeEv W 0000000000000012
_ZNKSt7__cxx1112basic_stringIcSt11char_traitsIcESaIcEE5c_strEv W 000000000000001a
_ZNKSt7__cxx1112basic_stringIcSt11char_traitsIcESaIcEE5emptyEv W 0000000000000020
_ZNKSt7__cxx1112basic_stringIcSt11char_traitsIcESaIcEE6lengthEv W 0000000000000012
_ZNKSt7__cxx1112basic_stringIcSt11char_traitsIcESaIcEE7compareEPKc W 00000000000000b3
_ZNKSt7__cxx1112basic_stringIcSt11char_traitsIcESaIcEE7_M_dataEv W 0000000000000011
_ZNKSt7__cxx1112basic_stringIcSt11char_traitsIcESaIcEE8capacityEv W 000000000000002d
_ZNKSt7__cxx1112basic_stringIcSt11char_traitsIcESaIcEE8max_sizeEv W 0000000000000029
_ZNKSt7__cxx1112basic_stringIcSt11char_traitsIcESaIcEE8_M_checkEmPKc W 000000000000005c
_ZNKSt7__cxx1112basic_stringIcSt11char_traitsIcESaIcEE8_M_limitEmm W 000000000000004c
_ZNKSt8functionIFN7sysrepo9ErrorCodeENS0_7SessionEjSt17basic_string_viewIcSt11char_traitsIcEESt8optionalIS6_ENS0_5EventEjEEcvbEv W 000000000000001d
_ZNKSt8functionIFN7sysrepo9ErrorCodeENS0_7SessionEjSt17basic_string_viewIcSt11char_traitsIcEESt8optionalIS6_ES8_jRS7_IN7libyang8DataNodeEEEEcvbEv W 000000000000001d
_ZNKSt8optionalIN7libyang8DataNodeEEcvbEv W 000000000000001a
_ZNKSt9_Any_data9_M_accessEv W 000000000000000e
_ZNOSt8optionalIN7libyang8DataNodeEE5valueEv W 0000000000000039
_ZNSaISt10_List_nodeIN7sysrepo8PrivDataISt8functionIFNS0_9ErrorCodeENS0_7SessionEjSt17basic_string_viewIcSt11char_traitsIcEEN7libyang8DataNodeENS0_5EventEjSA_EEEEEED1Ev W 000000000000000b
_ZNSaISt10_List_nodeIN7sysrepo8PrivDataISt8functionIFNS0_9ErrorCodeENS0_7SessionEjSt17basic_string_viewIcSt11char_traitsIcEEN7libyang8DataNodeENS0_5EventEjSA_EEEEEED2Ev W 000000000000000b
_ZNSaISt10_List_nodeIN7sysrepo8PrivDataISt8functionIFNS0_9ErrorCodeENS0_7SessionEjSt17basic_string_viewIcSt11char_traitsIcEESt8optionalIS8_ENS0_5EventEjEEEEEED1Ev W 000000000000000b
_ZNSaISt10_List_nodeIN7sysrepo8PrivDataISt8functionIFNS0_9ErrorCodeENS0_7SessionEjSt17basic_string_viewIcSt11char_traitsIcEESt8optionalIS8_ENS0_5EventEjEEEEEED2Ev W 000000000000000b
_ZNSaISt10_List_nodeIN7sysrepo8PrivDataISt8functionIFNS0_9ErrorCodeENS0_7SessionEjSt17basic_string_viewIcSt11char_traitsIcEESt8optionalIS8_ESA_jRS9_IN7libyang8DataNodeEEEEEEEED1Ev W 000000000000000b
_ZNSaISt10_List_nodeIN7sysrepo8PrivDataISt8functionIFNS0_9ErrorCodeENS0_7SessionEjSt17basic_string_viewIcSt11char_traitsIcEESt8optionalIS8_ESA_jRS9_IN7libyang8DataNodeEEEEEEEED2Ev W 000000000000000b
_ZNSaISt10_List_nodeIN7sysrepo8PrivDataISt8functionIFvNS0_7SessionEjNS0_16NotificationTypeESt8optionalIN7libyang8DataNodeEENSt6chrono10time_pointINS9_3_V212system_clockENS9_8durationIlSt5ratioILl1ELl1000000000EEEEEEEEEEEED1Ev W 000000000000000b
_ZNSaISt10_List_nodeIN7sysrepo8PrivDataISt8functionIFvNS0_7SessionEjNS0_16NotificationTypeESt8optionalIN7libyang8DataNodeEENSt6chrono10time_pointINS9_3_V212system_clockENS9_8durationIlSt5ratioILl1ELl1000000000EEEEEEEEEEEED2Ev W 000000000000000b
_ZNSt10_Head_baseILm0EP12NetConfAgentLb0EE7_M_headERS2_ W 000000000000000e
_ZNSt10_Head_baseILm0EP12NetConfAgentLb0EEC1Ev W 0000000000000016
_ZNSt10_Head_baseILm0EP12NetConfAgentLb0EEC2Ev W 0000000000000016
_ZNSt10_Head_baseILm0EP13INetConfAgentLb0EE7_M_headERKS2_ W 000000000000000e
_ZNSt10_Head_baseILm0EP13INetConfAgentLb0EE7_M_headERS2_ W 000000000000000e
_ZNSt10_Head_baseILm0EP13INetConfAgentLb0EEC1IRS1_EEOT_ W 0000000000000029
_ZNSt10_Head_baseILm0EP13INetConfAgentLb0EEC1IS1_EEOT_ W 0000000000000029
_ZNSt10_Head_baseILm0EP13INetConfAgentLb0EEC2IRS1_EEOT_ W 0000000000000029
_ZNSt10_Head_baseILm0EP13INetConfAgentLb0EEC2IS1_EEOT_ W 0000000000000029
_ZNSt10_Head_baseILm1ESt14default_deleteI12NetConfAgentELb1EE7_M_headERS3_ W 000000000000000e
_ZNSt10_Head_baseILm1ESt14default_deleteI12NetConfAgentELb1EEC1Ev W 000000000000000b
_ZNSt10_Head_baseILm1ESt14default_deleteI12NetConfAgentELb1EEC2Ev W 000000000000000b
_ZNSt10_Head_baseILm1ESt14default_deleteI13INetConfAgentELb1EE7_M_headERS3_ W 000000000000000e
_ZNSt10_Head_baseILm1ESt14default_deleteI13INetConfAgentELb1EEC1IS0_I12NetConfAgentEEEOT_ W 0000000000000031
_ZNSt10_Head_baseILm1ESt14default_deleteI13INetConfAgentELb1EEC1IS2_EEOT_ W 000000000000001f
_ZNSt10_Head_baseILm1ESt14default_deleteI13INetConfAgentELb1EEC2IS0_I12NetConfAgentEEEOT_ W 0000000000000031
_ZNSt10_Head_baseILm1ESt14default_deleteI13INetConfAgentELb1EEC2IS2_EEOT_ W 000000000000001f
_ZNSt10_List_nodeIN7sysrepo8PrivDataISt8functionIFNS0_9ErrorCodeENS0_7SessionEjSt17basic_string_viewIcSt11char_traitsIcEEN7libyang8DataNodeENS0_5EventEjSA_EEEEE9_M_valptrEv W 000000000000001e
_ZNSt10_List_nodeIN7sysrepo8PrivDataISt8functionIFNS0_9ErrorCodeENS0_7SessionEjSt17basic_string_viewIcSt11char_traitsIcEESt8optionalIS8_ENS0_5EventEjEEEEE9_M_valptrEv W 000000000000001e
_ZNSt10_List_nodeIN7sysrepo8PrivDataISt8functionIFNS0_9ErrorCodeENS0_7SessionEjSt17basic_string_viewIcSt11char_traitsIcEESt8optionalIS8_ESA_jRS9_IN7libyang8DataNodeEEEEEEE9_M_valptrEv W 000000000000001e
_ZNSt10_List_nodeIN7sysrepo8PrivDataISt8functionIFvNS0_7SessionEjNS0_16NotificationTypeESt8optionalIN7libyang8DataNodeEENSt6chrono10time_pointINS9_3_V212system_clockENS9_8durationIlSt5ratioILl1ELl1000000000EEEEEEEEEEE9_M_valptrEv W 000000000000001e
_ZNSt10shared_ptrI13sr_conn_ctx_sED1Ev W 000000000000001b
_ZNSt10shared_ptrI13sr_conn_ctx_sED2Ev W 000000000000001b
_ZNSt10shared_ptrI16sr_change_iter_sED1Ev W 000000000000001b
_ZNSt10shared_ptrI16sr_change_iter_sED2Ev W 000000000000001b
_ZNSt10shared_ptrI16sr_session_ctx_sEC1EOS1_ W 0000000000000033
_ZNSt10shared_ptrI16sr_session_ctx_sEC2EOS1_ W 0000000000000033
_ZNSt10shared_ptrI16sr_session_ctx_sED1Ev W 000000000000001b
_ZNSt10shared_ptrI16sr_session_ctx_sED2Ev W 000000000000001b
_ZNSt10shared_ptrI21sr_subscription_ctx_sED1Ev W 000000000000001b
_ZNSt10shared_ptrI21sr_subscription_ctx_sED2Ev W 000000000000001b
_ZNSt10shared_ptrI6ly_ctxED1Ev W 000000000000001b
_ZNSt10shared_ptrI6ly_ctxED2Ev W 000000000000001b
_ZNSt10shared_ptrIcED1Ev W 000000000000001b
_ZNSt10shared_ptrIcED2Ev W 000000000000001b
_ZNSt10shared_ptrISt8functionIFvRSt9exceptionEEED1Ev W 000000000000001b
_ZNSt10shared_ptrISt8functionIFvRSt9exceptionEEED2Ev W 000000000000001b
_ZNSt10unique_ptrI12NetConfAgentSt14default_deleteIS0_EE11get_deleterEv W 000000000000001a
_ZNSt10unique_ptrI12NetConfAgentSt14default_deleteIS0_EE7releaseEv W 000000000000001a
_ZNSt10unique_ptrI12NetConfAgentSt14default_deleteIS0_EEC1IS2_vEEPS0_ W 0000000000000026
_ZNSt10unique_ptrI12NetConfAgentSt14default_deleteIS0_EEC2IS2_vEEPS0_ W 0000000000000026
_ZNSt10unique_ptrI12NetConfAgentSt14default_deleteIS0_EED1Ev W 0000000000000064
_ZNSt10unique_ptrI12NetConfAgentSt14default_deleteIS0_EED2Ev W 0000000000000064
_ZNSt10unique_ptrI13INetConfAgentSt14default_deleteIS0_EE11get_deleterEv W 000000000000001a
_ZNSt10unique_ptrI13INetConfAgentSt14default_deleteIS0_EEC1EOS3_ W 0000000000000026
_ZNSt10unique_ptrI13INetConfAgentSt14default_deleteIS0_EEC1I12NetConfAgentS1_IS5_EvEEOS_IT_T0_E W 0000000000000052
_ZNSt10unique_ptrI13INetConfAgentSt14default_deleteIS0_EEC2EOS3_ W 0000000000000026
_ZNSt10unique_ptrI13INetConfAgentSt14default_deleteIS0_EEC2I12NetConfAgentS1_IS5_EvEEOS_IT_T0_E W 0000000000000052
_ZNSt10unique_ptrI13INetConfAgentSt14default_deleteIS0_EED1Ev W 0000000000000064
_ZNSt10unique_ptrI13INetConfAgentSt14default_deleteIS0_EED2Ev W 0000000000000064
_ZNSt11char_traitsIcE2ltERKcS2_ W 0000000000000023
_ZNSt11char_traitsIcE4copyEPcPKcm W 0000000000000063
_ZNSt11char_traitsIcE4moveEPcPKcm W 000000000000005d
_ZNSt11char_traitsIcE6assignERcRKc W 000000000000001c
_ZNSt11char_traitsIcE6lengthEPKc W 000000000000003a
_ZNSt11char_traitsIcE7compareEPKcS2_m W 00000000000000c0
_ZNSt11__copy_moveILb0ELb0ESt26random_access_iterator_tagE8__copy_mIPKcPcEET0_T_S7_S6_ W 0000000000000047
_ZNSt11__copy_moveILb0ELb1ESt26random_access_iterator_tagE8__copy_mIcEEPT_PKS3_S6_S4_ W 000000000000004b
_ZNSt11_Tuple_implILm0EJP12NetConfAgentSt14default_deleteIS0_EEE7_M_headERS4_ W 000000000000001a
_ZNSt11_Tuple_implILm0EJP12NetConfAgentSt14default_deleteIS0_EEEC1Ev W 0000000000000027
_ZNSt11_Tuple_implILm0EJP12NetConfAgentSt14default_deleteIS0_EEEC2Ev W 0000000000000027
_ZNSt11_Tuple_implILm0EJP13INetConfAgentSt14default_deleteIS0_EEE7_M_headERKS4_ W 000000000000001a
_ZNSt11_Tuple_implILm0EJP13INetConfAgentSt14default_deleteIS0_EEE7_M_headERS4_ W 000000000000001a
_ZNSt11_Tuple_implILm0EJP13INetConfAgentSt14default_deleteIS0_EEE7_M_tailERS4_ W 000000000000000e
_ZNSt11_Tuple_implILm0EJP13INetConfAgentSt14default_deleteIS0_EEEC1EOS4_ W 0000000000000061
_ZNSt11_Tuple_implILm0EJP13INetConfAgentSt14default_deleteIS0_EEEC1IRS1_JS2_I12NetConfAgentEEvEEOT_DpOT0_ W 0000000000000055
_ZNSt11_Tuple_implILm0EJP13INetConfAgentSt14default_deleteIS0_EEEC2EOS4_ W 0000000000000061
_ZNSt11_Tuple_implILm0EJP13INetConfAgentSt14default_deleteIS0_EEEC2IRS1_JS2_I12NetConfAgentEEvEEOT_DpOT0_ W 0000000000000055
_ZNSt11_Tuple_implILm1EJSt14default_deleteI12NetConfAgentEEE7_M_headERS3_ W 000000000000001a
_ZNSt11_Tuple_implILm1EJSt14default_deleteI12NetConfAgentEEEC1Ev W 000000000000001b
_ZNSt11_Tuple_implILm1EJSt14default_deleteI12NetConfAgentEEEC2Ev W 000000000000001b
_ZNSt11_Tuple_implILm1EJSt14default_deleteI13INetConfAgentEEE7_M_headERS3_ W 000000000000001a
_ZNSt11_Tuple_implILm1EJSt14default_deleteI13INetConfAgentEEEC1EOS3_ W 0000000000000039
_ZNSt11_Tuple_implILm1EJSt14default_deleteI13INetConfAgentEEEC1IS0_I12NetConfAgentEEEOT_ W 0000000000000031
_ZNSt11_Tuple_implILm1EJSt14default_deleteI13INetConfAgentEEEC2EOS3_ W 0000000000000039
_ZNSt11_Tuple_implILm1EJSt14default_deleteI13INetConfAgentEEEC2IS0_I12NetConfAgentEEEOT_ W 0000000000000031
_ZNSt12__shared_ptrI13sr_conn_ctx_sLN9__gnu_cxx12_Lock_policyE2EED1Ev W 000000000000001f
_ZNSt12__shared_ptrI13sr_conn_ctx_sLN9__gnu_cxx12_Lock_policyE2EED2Ev W 000000000000001f
_ZNSt12__shared_ptrI16sr_change_iter_sLN9__gnu_cxx12_Lock_policyE2EED1Ev W 000000000000001f
_ZNSt12__shared_ptrI16sr_change_iter_sLN9__gnu_cxx12_Lock_policyE2EED2Ev W 000000000000001f
_ZNSt12__shared_ptrI16sr_session_ctx_sLN9__gnu_cxx12_Lock_policyE2EEC1EOS3_ W 0000000000000057
_ZNSt12__shared_ptrI16sr_session_ctx_sLN9__gnu_cxx12_Lock_policyE2EEC2EOS3_ W 0000000000000057
_ZNSt12__shared_ptrI16sr_session_ctx_sLN9__gnu_cxx12_Lock_policyE2EED1Ev W 000000000000001f
_ZNSt12__shared_ptrI16sr_session_ctx_sLN9__gnu_cxx12_Lock_policyE2EED2Ev W 000000000000001f
_ZNSt12__shared_ptrI21sr_subscription_ctx_sLN9__gnu_cxx12_Lock_policyE2EED1Ev W 000000000000001f
_ZNSt12__shared_ptrI21sr_subscription_ctx_sLN9__gnu_cxx12_Lock_policyE2EED2Ev W 000000000000001f
_ZNSt12__shared_ptrI6ly_ctxLN9__gnu_cxx12_Lock_policyE2EED1Ev W 000000000000001f
_ZNSt12__shared_ptrI6ly_ctxLN9__gnu_cxx12_Lock_policyE2EED2Ev W 000000000000001f
_ZNSt12__shared_ptrIcLN9__gnu_cxx12_Lock_policyE2EED1Ev W 000000000000001f
_ZNSt12__shared_ptrIcLN9__gnu_cxx12_Lock_policyE2EED2Ev W 000000000000001f
_ZNSt12__shared_ptrISt8functionIFvRSt9exceptionEELN9__gnu_cxx12_Lock_policyE2EED1Ev W 000000000000001f
_ZNSt12__shared_ptrISt8functionIFvRSt9exceptionEELN9__gnu_cxx12_Lock_policyE2EED2Ev W 000000000000001f
_ZNSt14default_deleteI13INetConfAgentEC1I12NetConfAgentvEERKS_IT_E W 000000000000000f
_ZNSt14default_deleteI13INetConfAgentEC2I12NetConfAgentvEERKS_IT_E W 000000000000000f
_ZNSt14_Function_baseC1Ev W 0000000000000017
_ZNSt14_Function_baseC2Ev W 0000000000000017
_ZNSt14_Function_baseD1Ev W 000000000000003a
_ZNSt14_Function_baseD2Ev W 000000000000003a
_ZNSt14_Optional_baseIN7libyang15CreationOptionsELb1ELb1EEC1Ev W 000000000000001b
_ZNSt14_Optional_baseIN7libyang15CreationOptionsELb1ELb1EEC2Ev W 000000000000001b
_ZNSt14_Optional_baseIN7libyang8DataNodeELb0ELb0EEC1ERKS2_ W 0000000000000030
_ZNSt14_Optional_baseIN7libyang8DataNodeELb0ELb0EEC2ERKS2_ W 0000000000000030
_ZNSt14_Optional_baseIN7libyang8DataNodeELb0ELb0EED1Ev W 000000000000001b
_ZNSt14_Optional_baseIN7libyang8DataNodeELb0ELb0EED2Ev W 000000000000001b
_ZNSt14_Optional_baseIN7sysrepo12SubscriptionELb0ELb0EEC1Ev W 000000000000001b
_ZNSt14_Optional_baseIN7sysrepo12SubscriptionELb0ELb0EEC2Ev W 000000000000001b
_ZNSt14_Optional_baseIN7sysrepo12SubscriptionELb0ELb0EED1Ev W 000000000000001b
_ZNSt14_Optional_baseIN7sysrepo12SubscriptionELb0ELb0EED2Ev W 000000000000001b
_ZNSt14_Optional_baseIN7sysrepo6ChangeELb0ELb0EED1Ev W 000000000000001b
_ZNSt14_Optional_baseIN7sysrepo6ChangeELb0ELb0EED2Ev W 000000000000001b
_ZNSt14pointer_traitsIPcE10pointer_toERc W 000000000000001a
_ZNSt14pointer_traitsIPKcE10pointer_toERS0_ W 000000000000001a
_ZNSt14__shared_countILN9__gnu_cxx12_Lock_policyE2EE7_M_swapERS2_ W 0000000000000033
_ZNSt14__shared_countILN9__gnu_cxx12_Lock_policyE2EEC1Ev W 0000000000000016
_ZNSt14__shared_countILN9__gnu_cxx12_Lock_policyE2EEC2Ev W 0000000000000016
_ZNSt14__shared_countILN9__gnu_cxx12_Lock_policyE2EED1Ev W 000000000000002a
_ZNSt14__shared_countILN9__gnu_cxx12_Lock_policyE2EED2Ev W 000000000000002a
_ZNSt15__uniq_ptr_dataI12NetConfAgentSt14default_deleteIS0_ELb1ELb1EECI1St15__uniq_ptr_implIS0_S2_EEPS0_ W 0000000000000026
_ZNSt15__uniq_ptr_dataI12NetConfAgentSt14default_deleteIS0_ELb1ELb1EECI2St15__uniq_ptr_implIS0_S2_EEPS0_ W 0000000000000026
_ZNSt15__uniq_ptr_dataI13INetConfAgentSt14default_deleteIS0_ELb1ELb1EEC1EOS3_ W 0000000000000026
_ZNSt15__uniq_ptr_dataI13INetConfAgentSt14default_deleteIS0_ELb1ELb1EEC2EOS3_ W 0000000000000026
_ZNSt15__uniq_ptr_dataI13INetConfAgentSt14default_deleteIS0_ELb1ELb1EECI1St15__uniq_ptr_implIS0_S2_EIS1_I12NetConfAgentEEEPS0_OT_ W 000000000000002e
_ZNSt15__uniq_ptr_dataI13INetConfAgentSt14default_deleteIS0_ELb1ELb1EECI2St15__uniq_ptr_implIS0_S2_EIS1_I12NetConfAgentEEEPS0_OT_ W 000000000000002e
_ZNSt15__uniq_ptr_implI12NetConfAgentSt14default_deleteIS0_EE10_M_deleterEv W 000000000000001a
_ZNSt15__uniq_ptr_implI12NetConfAgentSt14default_deleteIS0_EE6_M_ptrEv W 000000000000001a
_ZNSt15__uniq_ptr_implI12NetConfAgentSt14default_deleteIS0_EE7releaseEv W 0000000000000038
_ZNSt15__uniq_ptr_implI12NetConfAgentSt14default_deleteIS0_EEC1EPS0_ W 0000000000000037
_ZNSt15__uniq_ptr_implI12NetConfAgentSt14default_deleteIS0_EEC2EPS0_ W 0000000000000037
_ZNSt15__uniq_ptr_implI13INetConfAgentSt14default_deleteIS0_EE10_M_deleterEv W 000000000000001a
_ZNSt15__uniq_ptr_implI13INetConfAgentSt14default_deleteIS0_EE6_M_ptrEv W 000000000000001a
_ZNSt15__uniq_ptr_implI13INetConfAgentSt14default_deleteIS0_EEC1EOS3_ W 0000000000000046
_ZNSt15__uniq_ptr_implI13INetConfAgentSt14default_deleteIS0_EEC1IS1_I12NetConfAgentEEEPS0_OT_ W 000000000000003e
_ZNSt15__uniq_ptr_implI13INetConfAgentSt14default_deleteIS0_EEC2EOS3_ W 0000000000000046
_ZNSt15__uniq_ptr_implI13INetConfAgentSt14default_deleteIS0_EEC2IS1_I12NetConfAgentEEEPS0_OT_ W 000000000000003e
_ZNSt16allocator_traitsISaIcEE10deallocateERS0_Pcm W 000000000000005e
_ZNSt16allocator_traitsISaIcEE37select_on_container_copy_constructionERKS0_ W 0000000000000029
_ZNSt16allocator_traitsISaIcEE8allocateERS0_m W 0000000000000052
_ZNSt16allocator_traitsISaIcEE8max_sizeERKS0_ W 0000000000000011
_ZNSt16allocator_traitsISaISt10_List_nodeIN7sysrepo8PrivDataISt8functionIFNS1_9ErrorCodeENS1_7SessionEjSt17basic_string_viewIcSt11char_traitsIcEEN7libyang8DataNodeENS1_5EventEjSB_EEEEEEE10deallocateERSH_PSG_m W 000000000000005e
_ZNSt16allocator_traitsISaISt10_List_nodeIN7sysrepo8PrivDataISt8functionIFNS1_9ErrorCodeENS1_7SessionEjSt17basic_string_viewIcSt11char_traitsIcEEN7libyang8DataNodeENS1_5EventEjSB_EEEEEEE7destroyISF_EEvRSH_PT_ W 000000000000001f
_ZNSt16allocator_traitsISaISt10_List_nodeIN7sysrepo8PrivDataISt8functionIFNS1_9ErrorCodeENS1_7SessionEjSt17basic_string_viewIcSt11char_traitsIcEESt8optionalIS9_ENS1_5EventEjEEEEEEE10deallocateERSH_PSG_m W 000000000000005e
_ZNSt16allocator_traitsISaISt10_List_nodeIN7sysrepo8PrivDataISt8functionIFNS1_9ErrorCodeENS1_7SessionEjSt17basic_string_viewIcSt11char_traitsIcEESt8optionalIS9_ENS1_5EventEjEEEEEEE7destroyISF_EEvRSH_PT_ W 000000000000001f
_ZNSt16allocator_traitsISaISt10_List_nodeIN7sysrepo8PrivDataISt8functionIFNS1_9ErrorCodeENS1_7SessionEjSt17basic_string_viewIcSt11char_traitsIcEESt8optionalIS9_ESB_jRSA_IN7libyang8DataNodeEEEEEEEEE10deallocateERSK_PSJ_m W 000000000000005e
_ZNSt16allocator_traitsISaISt10_List_nodeIN7sysrepo8PrivDataISt8functionIFNS1_9ErrorCodeENS1_7SessionEjSt17basic_string_viewIcSt11char_traitsIcEESt8optionalIS9_ESB_jRSA_IN7libyang8DataNodeEEEEEEEEE7destroyISI_EEvRSK_PT_ W 000000000000001f
_ZNSt16allocator_traitsISaISt10_List_nodeIN7sysrepo8PrivDataISt8functionIFvNS1_7SessionEjNS1_16NotificationTypeESt8optionalIN7libyang8DataNodeEENSt6chrono10time_pointINSA_3_V212system_clockENSA_8durationIlSt5ratioILl1ELl1000000000EEEEEEEEEEEEE10deallocateERSN_PSM_m W 000000000000005e
_ZNSt16allocator_traitsISaISt10_List_nodeIN7sysrepo8PrivDataISt8functionIFvNS1_7SessionEjNS1_16NotificationTypeESt8optionalIN7libyang8DataNodeEENSt6chrono10time_pointINSA_3_V212system_clockENSA_8durationIlSt5ratioILl1ELl1000000000EEEEEEEEEEEEE7destroyISL_EEvRSN_PT_ W 000000000000001f
_ZNSt16_Sp_counted_baseILN9__gnu_cxx12_Lock_policyE2EE10_M_releaseEv W 0000000000000129
_ZNSt17_Optional_payloadIN7libyang15CreationOptionsELb1ELb1ELb1EEC1Ev W 000000000000001b
_ZNSt17_Optional_payloadIN7libyang15CreationOptionsELb1ELb1ELb1EEC2Ev W 000000000000001b
_ZNSt17_Optional_payloadIN7libyang8DataNodeELb0ELb0ELb0EECI1St22_Optional_payload_baseIS1_EEbRKS4_ W 0000000000000031
_ZNSt17_Optional_payloadIN7libyang8DataNodeELb0ELb0ELb0EECI2St22_Optional_payload_baseIS1_EEbRKS4_ W 0000000000000031
_ZNSt17_Optional_payloadIN7libyang8DataNodeELb0ELb0ELb0EED1Ev W 0000000000000027
_ZNSt17_Optional_payloadIN7libyang8DataNodeELb0ELb0ELb0EED2Ev W 0000000000000027
_ZNSt17_Optional_payloadIN7libyang8DataNodeELb1ELb0ELb0EECI1St22_Optional_payload_baseIS1_EEbRKS4_ W 0000000000000031
_ZNSt17_Optional_payloadIN7libyang8DataNodeELb1ELb0ELb0EECI2St22_Optional_payload_baseIS1_EEbRKS4_ W 0000000000000031
_ZNSt17_Optional_payloadIN7libyang8DataNodeELb1ELb0ELb0EED1Ev W 000000000000001b
_ZNSt17_Optional_payloadIN7libyang8DataNodeELb1ELb0ELb0EED2Ev W 000000000000001b
_ZNSt17_Optional_payloadIN7sysrepo12SubscriptionELb0ELb0ELb0EEC1Ev W 000000000000001b
_ZNSt17_Optional_payloadIN7sysrepo12SubscriptionELb0ELb0ELb0EEC2Ev W 000000000000001b
_ZNSt17_Optional_payloadIN7sysrepo12SubscriptionELb0ELb0ELb0EED1Ev W 0000000000000027
_ZNSt17_Optional_payloadIN7sysrepo12SubscriptionELb0ELb0ELb0EED2Ev W 0000000000000027
_ZNSt17_Optional_payloadIN7sysrepo12SubscriptionELb1ELb0ELb0EEC1Ev W 000000000000001b
_ZNSt17_Optional_payloadIN7sysrepo12SubscriptionELb1ELb0ELb0EEC2Ev W 000000000000001b
_ZNSt17_Optional_payloadIN7sysrepo12SubscriptionELb1ELb0ELb0EED1Ev W 000000000000001b
_ZNSt17_Optional_payloadIN7sysrepo12SubscriptionELb1ELb0ELb0EED2Ev W 000000000000001b
_ZNSt17_Optional_payloadIN7sysrepo6ChangeELb0ELb0ELb0EED1Ev W 0000000000000027
_ZNSt17_Optional_payloadIN7sysrepo6ChangeELb0ELb0ELb0EED2Ev W 0000000000000027
_ZNSt17_Optional_payloadIN7sysrepo6ChangeELb1ELb0ELb0EED1Ev W 000000000000001b
_ZNSt17_Optional_payloadIN7sysrepo6ChangeELb1ELb0ELb0EED2Ev W 000000000000001b
_ZNSt19bad_optional_accessC1Ev W 000000000000002d
_ZNSt19bad_optional_accessC2Ev W 000000000000002d
_ZNSt19bad_optional_accessD0Ev W 000000000000002b
_ZNSt19bad_optional_accessD1Ev W 000000000000002d
_ZNSt19bad_optional_accessD2Ev W 000000000000002d
_ZNSt19_Optional_base_implIN7libyang8DataNodeESt14_Optional_baseIS1_Lb0ELb0EEE6_M_getEv W 000000000000001a
_ZNSt19_Optional_base_implIN7sysrepo12SubscriptionESt14_Optional_baseIS1_Lb0ELb0EEE12_M_constructIJS1_EEEvDpOT_ W 0000000000000056
_ZNSt19_Optional_base_implIN7sysrepo12SubscriptionESt14_Optional_baseIS1_Lb0ELb0EEE6_M_getEv W 000000000000001a
_ZNSt20__copy_move_backwardILb0ELb0ESt26random_access_iterator_tagE13__copy_move_bIPKcPcEET0_T_S7_S6_ W 0000000000000047
_ZNSt20__copy_move_backwardILb0ELb1ESt26random_access_iterator_tagE13__copy_move_bIcEEPT_PKS3_S6_S4_ W 000000000000005e
_ZNSt22_Optional_payload_baseIN7libyang15CreationOptionsEE8_StorageIS1_Lb1EEC1Ev W 000000000000000b
_ZNSt22_Optional_payload_baseIN7libyang15CreationOptionsEE8_StorageIS1_Lb1EEC2Ev W 000000000000000b
_ZNSt22_Optional_payload_baseIN7libyang15CreationOptionsEEC1Ev W 0000000000000023
_ZNSt22_Optional_payload_baseIN7libyang15CreationOptionsEEC2Ev W 0000000000000023
_ZNSt22_Optional_payload_baseIN7libyang8DataNodeEE10_M_destroyEv W 0000000000000023
_ZNSt22_Optional_payload_baseIN7libyang8DataNodeEE12_M_constructIJRKS1_EEEvDpOT_ W 000000000000007c
_ZNSt22_Optional_payload_baseIN7libyang8DataNodeEE6_M_getEv W 000000000000000e
_ZNSt22_Optional_payload_baseIN7libyang8DataNodeEE8_M_resetEv W 0000000000000027
_ZNSt22_Optional_payload_baseIN7libyang8DataNodeEE8_StorageIS1_Lb0EEC1Ev W 000000000000000b
_ZNSt22_Optional_payload_baseIN7libyang8DataNodeEE8_StorageIS1_Lb0EEC2Ev W 000000000000000b
_ZNSt22_Optional_payload_baseIN7libyang8DataNodeEE8_StorageIS1_Lb0EED1Ev W 000000000000000b
_ZNSt22_Optional_payload_baseIN7libyang8DataNodeEE8_StorageIS1_Lb0EED2Ev W 000000000000000b
_ZNSt22_Optional_payload_baseIN7libyang8DataNodeEEC1EbRKS2_ W 0000000000000077
_ZNSt22_Optional_payload_baseIN7libyang8DataNodeEEC2EbRKS2_ W 0000000000000077
_ZNSt22_Optional_payload_baseIN7libyang8DataNodeEED1Ev W 000000000000001b
_ZNSt22_Optional_payload_baseIN7libyang8DataNodeEED2Ev W 000000000000001b
_ZNSt22_Optional_payload_baseIN7sysrepo12SubscriptionEE10_M_destroyEv W 0000000000000026
_ZNSt22_Optional_payload_baseIN7sysrepo12SubscriptionEE6_M_getEv W 000000000000000e
_ZNSt22_Optional_payload_baseIN7sysrepo12SubscriptionEE8_M_resetEv W 000000000000002a
_ZNSt22_Optional_payload_baseIN7sysrepo12SubscriptionEE8_StorageIS1_Lb0EEC1Ev W 000000000000000b
_ZNSt22_Optional_payload_baseIN7sysrepo12SubscriptionEE8_StorageIS1_Lb0EED1Ev W 000000000000000b
_ZNSt22_Optional_payload_baseIN7sysrepo12SubscriptionEE8_StorageIS1_Lb0EED2Ev W 000000000000000b
_ZNSt22_Optional_payload_baseIN7sysrepo12SubscriptionEEC1Ev W 0000000000000026
_ZNSt22_Optional_payload_baseIN7sysrepo12SubscriptionEEC2Ev W 0000000000000026
_ZNSt22_Optional_payload_baseIN7sysrepo12SubscriptionEED1Ev W 000000000000001b
_ZNSt22_Optional_payload_baseIN7sysrepo12SubscriptionEED2Ev W 000000000000001b
_ZNSt22_Optional_payload_baseIN7sysrepo6ChangeEE10_M_destroyEv W 0000000000000023
_ZNSt22_Optional_payload_baseIN7sysrepo6ChangeEE8_M_resetEv W 0000000000000027
_ZNSt22_Optional_payload_baseIN7sysrepo6ChangeEE8_StorageIS1_Lb0EED1Ev W 000000000000000b
_ZNSt22_Optional_payload_baseIN7sysrepo6ChangeEE8_StorageIS1_Lb0EED2Ev W 000000000000000b
_ZNSt22_Optional_payload_baseIN7sysrepo6ChangeEED1Ev W 000000000000001b
_ZNSt22_Optional_payload_baseIN7sysrepo6ChangeEED2Ev W 000000000000001b
_ZNSt4pairIbNSt7__cxx1112basic_stringIcSt11char_traitsIcESaIcEEEEC1IbS5_Lb1EEEv W 0000000000000026
_ZNSt4pairIbNSt7__cxx1112basic_stringIcSt11char_traitsIcESaIcEEEED1Ev W 000000000000001f
_ZNSt4pairIbNSt7__cxx1112basic_stringIcSt11char_traitsIcESaIcEEEED2Ev W 000000000000001f
_ZNSt5tupleIJP12NetConfAgentSt14default_deleteIS0_EEEC1ILb1ELb1EEEv W 000000000000001b
_ZNSt5tupleIJP12NetConfAgentSt14default_deleteIS0_EEEC2ILb1ELb1EEEv W 000000000000001b
_ZNSt5tupleIJP13INetConfAgentSt14default_deleteIS0_EEEC1EOS4_ W 0000000000000026
_ZNSt5tupleIJP13INetConfAgentSt14default_deleteIS0_EEEC1IRS1_S2_I12NetConfAgentELb1EEEOT_OT0_ W 000000000000004e
_ZNSt5tupleIJP13INetConfAgentSt14default_deleteIS0_EEEC2EOS4_ W 0000000000000026
_ZNSt5tupleIJP13INetConfAgentSt14default_deleteIS0_EEEC2IRS1_S2_I12NetConfAgentELb1EEEOT_OT0_ W 000000000000004e
_ZNSt6chrono8durationIlSt5ratioILl1ELl1000EEEC1IivEERKT_ W 000000000000001f
_ZNSt6chrono8durationIlSt5ratioILl1ELl1000EEEC2IivEERKT_ W 000000000000001f
_ZNSt7__cxx1110_List_baseIN7sysrepo8PrivDataISt8functionIFNS1_9ErrorCodeENS1_7SessionEjSt17basic_string_viewIcSt11char_traitsIcEEN7libyang8DataNodeENS1_5EventEjSB_EEEESaISF_EE10_List_implD1Ev W 000000000000001b
_ZNSt7__cxx1110_List_baseIN7sysrepo8PrivDataISt8functionIFNS1_9ErrorCodeENS1_7SessionEjSt17basic_string_viewIcSt11char_traitsIcEEN7libyang8DataNodeENS1_5EventEjSB_EEEESaISF_EE10_List_implD2Ev W 000000000000001b
_ZNSt7__cxx1110_List_baseIN7sysrepo8PrivDataISt8functionIFNS1_9ErrorCodeENS1_7SessionEjSt17basic_string_viewIcSt11char_traitsIcEEN7libyang8DataNodeENS1_5EventEjSB_EEEESaISF_EE11_M_put_nodeEPSt10_List_nodeISF_E W 000000000000002b
_ZNSt7__cxx1110_List_baseIN7sysrepo8PrivDataISt8functionIFNS1_9ErrorCodeENS1_7SessionEjSt17basic_string_viewIcSt11char_traitsIcEEN7libyang8DataNodeENS1_5EventEjSB_EEEESaISF_EE21_M_get_Node_allocatorEv W 000000000000000e
_ZNSt7__cxx1110_List_baseIN7sysrepo8PrivDataISt8functionIFNS1_9ErrorCodeENS1_7SessionEjSt17basic_string_viewIcSt11char_traitsIcEEN7libyang8DataNodeENS1_5EventEjSB_EEEESaISF_EE8_M_clearEv W 000000000000007a
_ZNSt7__cxx1110_List_baseIN7sysrepo8PrivDataISt8functionIFNS1_9ErrorCodeENS1_7SessionEjSt17basic_string_viewIcSt11char_traitsIcEEN7libyang8DataNodeENS1_5EventEjSB_EEEESaISF_EED1Ev W 0000000000000027
_ZNSt7__cxx1110_List_baseIN7sysrepo8PrivDataISt8functionIFNS1_9ErrorCodeENS1_7SessionEjSt17basic_string_viewIcSt11char_traitsIcEEN7libyang8DataNodeENS1_5EventEjSB_EEEESaISF_EED2Ev W 0000000000000027
_ZNSt7__cxx1110_List_baseIN7sysrepo8PrivDataISt8functionIFNS1_9ErrorCodeENS1_7SessionEjSt17basic_string_viewIcSt11char_traitsIcEESt8optionalIS9_ENS1_5EventEjEEEESaISF_EE10_List_implD1Ev W 000000000000001b
_ZNSt7__cxx1110_List_baseIN7sysrepo8PrivDataISt8functionIFNS1_9ErrorCodeENS1_7SessionEjSt17basic_string_viewIcSt11char_traitsIcEESt8optionalIS9_ENS1_5EventEjEEEESaISF_EE10_List_implD2Ev W 000000000000001b
_ZNSt7__cxx1110_List_baseIN7sysrepo8PrivDataISt8functionIFNS1_9ErrorCodeENS1_7SessionEjSt17basic_string_viewIcSt11char_traitsIcEESt8optionalIS9_ENS1_5EventEjEEEESaISF_EE11_M_put_nodeEPSt10_List_nodeISF_E W 000000000000002b
_ZNSt7__cxx1110_List_baseIN7sysrepo8PrivDataISt8functionIFNS1_9ErrorCodeENS1_7SessionEjSt17basic_string_viewIcSt11char_traitsIcEESt8optionalIS9_ENS1_5EventEjEEEESaISF_EE21_M_get_Node_allocatorEv W 000000000000000e
_ZNSt7__cxx1110_List_baseIN7sysrepo8PrivDataISt8functionIFNS1_9ErrorCodeENS1_7SessionEjSt17basic_string_viewIcSt11char_traitsIcEESt8optionalIS9_ENS1_5EventEjEEEESaISF_EE8_M_clearEv W 000000000000007a
_ZNSt7__cxx1110_List_baseIN7sysrepo8PrivDataISt8functionIFNS1_9ErrorCodeENS1_7SessionEjSt17basic_string_viewIcSt11char_traitsIcEESt8optionalIS9_ENS1_5EventEjEEEESaISF_EED1Ev W 0000000000000027
_ZNSt7__cxx1110_List_baseIN7sysrepo8PrivDataISt8functionIFNS1_9ErrorCodeENS1_7SessionEjSt17basic_string_viewIcSt11char_traitsIcEESt8optionalIS9_ENS1_5EventEjEEEESaISF_EED2Ev W 0000000000000027
_ZNSt7__cxx1110_List_baseIN7sysrepo8PrivDataISt8functionIFNS1_9ErrorCodeENS1_7SessionEjSt17basic_string_viewIcSt11char_traitsIcEESt8optionalIS9_ESB_jRSA_IN7libyang8DataNodeEEEEEESaISI_EE10_List_implD1Ev W 000000000000001b
_ZNSt7__cxx1110_List_baseIN7sysrepo8PrivDataISt8functionIFNS1_9ErrorCodeENS1_7SessionEjSt17basic_string_viewIcSt11char_traitsIcEESt8optionalIS9_ESB_jRSA_IN7libyang8DataNodeEEEEEESaISI_EE10_List_implD2Ev W 000000000000001b
_ZNSt7__cxx1110_List_baseIN7sysrepo8PrivDataISt8functionIFNS1_9ErrorCodeENS1_7SessionEjSt17basic_string_viewIcSt11char_traitsIcEESt8optionalIS9_ESB_jRSA_IN7libyang8DataNodeEEEEEESaISI_EE11_M_put_nodeEPSt10_List_nodeISI_E W 000000000000002b
_ZNSt7__cxx1110_List_baseIN7sysrepo8PrivDataISt8functionIFNS1_9ErrorCodeENS1_7SessionEjSt17basic_string_viewIcSt11char_traitsIcEESt8optionalIS9_ESB_jRSA_IN7libyang8DataNodeEEEEEESaISI_EE21_M_get_Node_allocatorEv W 000000000000000e
_ZNSt7__cxx1110_List_baseIN7sysrepo8PrivDataISt8functionIFNS1_9ErrorCodeENS1_7SessionEjSt17basic_string_viewIcSt11char_traitsIcEESt8optionalIS9_ESB_jRSA_IN7libyang8DataNodeEEEEEESaISI_EE8_M_clearEv W 000000000000007a
_ZNSt7__cxx1110_List_baseIN7sysrepo8PrivDataISt8functionIFNS1_9ErrorCodeENS1_7SessionEjSt17basic_string_viewIcSt11char_traitsIcEESt8optionalIS9_ESB_jRSA_IN7libyang8DataNodeEEEEEESaISI_EED1Ev W 0000000000000027
_ZNSt7__cxx1110_List_baseIN7sysrepo8PrivDataISt8functionIFNS1_9ErrorCodeENS1_7SessionEjSt17basic_string_viewIcSt11char_traitsIcEESt8optionalIS9_ESB_jRSA_IN7libyang8DataNodeEEEEEESaISI_EED2Ev W 0000000000000027
_ZNSt7__cxx1110_List_baseIN7sysrepo8PrivDataISt8functionIFvNS1_7SessionEjNS1_16NotificationTypeESt8optionalIN7libyang8DataNodeEENSt6chrono10time_pointINSA_3_V212system_clockENSA_8durationIlSt5ratioILl1ELl1000000000EEEEEEEEEESaISL_EE10_List_implD1Ev W 000000000000001b
_ZNSt7__cxx1110_List_baseIN7sysrepo8PrivDataISt8functionIFvNS1_7SessionEjNS1_16NotificationTypeESt8optionalIN7libyang8DataNodeEENSt6chrono10time_pointINSA_3_V212system_clockENSA_8durationIlSt5ratioILl1ELl1000000000EEEEEEEEEESaISL_EE10_List_implD2Ev W 000000000000001b
_ZNSt7__cxx1110_List_baseIN7sysrepo8PrivDataISt8functionIFvNS1_7SessionEjNS1_16NotificationTypeESt8optionalIN7libyang8DataNodeEENSt6chrono10time_pointINSA_3_V212system_clockENSA_8durationIlSt5ratioILl1ELl1000000000EEEEEEEEEESaISL_EE11_M_put_nodeEPSt10_List_nodeISL_E W 000000000000002b
_ZNSt7__cxx1110_List_baseIN7sysrepo8PrivDataISt8functionIFvNS1_7SessionEjNS1_16NotificationTypeESt8optionalIN7libyang8DataNodeEENSt6chrono10time_pointINSA_3_V212system_clockENSA_8durationIlSt5ratioILl1ELl1000000000EEEEEEEEEESaISL_EE21_M_get_Node_allocatorEv W 000000000000000e
_ZNSt7__cxx1110_List_baseIN7sysrepo8PrivDataISt8functionIFvNS1_7SessionEjNS1_16NotificationTypeESt8optionalIN7libyang8DataNodeEENSt6chrono10time_pointINSA_3_V212system_clockENSA_8durationIlSt5ratioILl1ELl1000000000EEEEEEEEEESaISL_EE8_M_clearEv W 000000000000007a
_ZNSt7__cxx1110_List_baseIN7sysrepo8PrivDataISt8functionIFvNS1_7SessionEjNS1_16NotificationTypeESt8optionalIN7libyang8DataNodeEENSt6chrono10time_pointINSA_3_V212system_clockENSA_8durationIlSt5ratioILl1ELl1000000000EEEEEEEEEESaISL_EED1Ev W 0000000000000027
_ZNSt7__cxx1110_List_baseIN7sysrepo8PrivDataISt8functionIFvNS1_7SessionEjNS1_16NotificationTypeESt8optionalIN7libyang8DataNodeEENSt6chrono10time_pointINSA_3_V212system_clockENSA_8durationIlSt5ratioILl1ELl1000000000EEEEEEEEEESaISL_EED2Ev W 0000000000000027
_ZNSt7__cxx1112basic_stringIcSt11char_traitsIcESaIcEE10_M_destroyEm W 000000000000004e
_ZNSt7__cxx1112basic_stringIcSt11char_traitsIcESaIcEE10_M_disposeEv W 0000000000000039
_ZNSt7__cxx1112basic_stringIcSt11char_traitsIcESaIcEE10_M_replaceEmmPKcm W 000000000000027e
_ZNSt7__cxx1112basic_stringIcSt11char_traitsIcESaIcEE10_S_compareEmm W 0000000000000047
_ZNSt7__cxx1112basic_stringIcSt11char_traitsIcESaIcEE11_M_capacityEm W 000000000000001b
_ZNSt7__cxx1112basic_stringIcSt11char_traitsIcESaIcEE12_Alloc_hiderC1EPcOS3_ W 0000000000000040
_ZNSt7__cxx1112basic_stringIcSt11char_traitsIcESaIcEE12_Alloc_hiderC1EPcRKS3_ W 0000000000000035
_ZNSt7__cxx1112basic_stringIcSt11char_traitsIcESaIcEE12_Alloc_hiderC2EPcOS3_ W 0000000000000040
_ZNSt7__cxx1112basic_stringIcSt11char_traitsIcESaIcEE12_Alloc_hiderC2EPcRKS3_ W 0000000000000035
_ZNSt7__cxx1112basic_stringIcSt11char_traitsIcESaIcEE12_Alloc_hiderD1Ev W 000000000000001b
_ZNSt7__cxx1112basic_stringIcSt11char_traitsIcESaIcEE12_Alloc_hiderD2Ev W 000000000000001b
_ZNSt7__cxx1112basic_stringIcSt11char_traitsIcESaIcEE12_M_constructIPcEEvT_S7_ W 000000000000002e
_ZNSt7__cxx1112basic_stringIcSt11char_traitsIcESaIcEE12_M_constructIPcEEvT_S7_St20forward_iterator_tag W 0000000000000103
_ZNSt7__cxx1112basic_stringIcSt11char_traitsIcESaIcEE12_M_constructIPKcEEvT_S8_ W 000000000000002e
_ZNSt7__cxx1112basic_stringIcSt11char_traitsIcESaIcEE12_M_constructIPKcEEvT_S8_St20forward_iterator_tag W 0000000000000103
_ZNSt7__cxx1112basic_stringIcSt11char_traitsIcESaIcEE12__sv_wrapperC1ESt17basic_string_viewIcS2_E W 0000000000000032
_ZNSt7__cxx1112basic_stringIcSt11char_traitsIcESaIcEE12__sv_wrapperC2ESt17basic_string_viewIcS2_E W 0000000000000032
_ZNSt7__cxx1112basic_stringIcSt11char_traitsIcESaIcEE13_M_local_dataEv W 000000000000001e
_ZNSt7__cxx1112basic_stringIcSt11char_traitsIcESaIcEE13_M_set_lengthEm W 000000000000006f
_ZNSt7__cxx1112basic_stringIcSt11char_traitsIcESaIcEE13_S_copy_charsEPcPKcS7_ W 0000000000000035
_ZNSt7__cxx1112basic_stringIcSt11char_traitsIcESaIcEE13_S_copy_charsEPcS5_S5_ W 0000000000000035
_ZNSt7__cxx1112basic_stringIcSt11char_traitsIcESaIcEE16_M_construct_auxIPcEEvT_S7_St12__false_type W 0000000000000051
_ZNSt7__cxx1112basic_stringIcSt11char_traitsIcESaIcEE16_M_construct_auxIPKcEEvT_S8_St12__false_type W 0000000000000051
_ZNSt7__cxx1112basic_stringIcSt11char_traitsIcESaIcEE16_M_get_allocatorEv W 000000000000000e
_ZNSt7__cxx1112basic_stringIcSt11char_traitsIcESaIcEE17_S_to_string_viewESt17basic_string_viewIcS2_E W 000000000000001f
_ZNSt7__cxx1112basic_stringIcSt11char_traitsIcESaIcEE5clearEv W 0000000000000020
_ZNSt7__cxx1112basic_stringIcSt11char_traitsIcESaIcEE6assignEPKc W 0000000000000053
_ZNSt7__cxx1112basic_stringIcSt11char_traitsIcESaIcEE6assignEPKcm W 0000000000000047
_ZNSt7__cxx1112basic_stringIcSt11char_traitsIcESaIcEE6assignERKS4_ W 0000000000000207
_ZNSt7__cxx1112basic_stringIcSt11char_traitsIcESaIcEE6assignISt17basic_string_viewIcS2_EEENSt9enable_ifIXsrSt6__and_IJSt14is_convertibleIRKT_S7_ESt6__not_ISA_IPSC_PKS4_EESF_ISA_ISD_PKcEEEE5valueERS4_E4typeESD_ W 000000000000007d
_ZNSt7__cxx1112basic_stringIcSt11char_traitsIcESaIcEE7_M_dataEPc W 000000000000001a
_ZNSt7__cxx1112basic_stringIcSt11char_traitsIcESaIcEE7replaceEmmPKcm W 0000000000000077
_ZNSt7__cxx1112basic_stringIcSt11char_traitsIcESaIcEE7replaceEmmRKS4_ W 0000000000000054
_ZNSt7__cxx1112basic_stringIcSt11char_traitsIcESaIcEE7_S_copyEPcPKcm W 000000000000004a
_ZNSt7__cxx1112basic_stringIcSt11char_traitsIcESaIcEE7_S_moveEPcPKcm W 000000000000004a
_ZNSt7__cxx1112basic_stringIcSt11char_traitsIcESaIcEE9_M_assignERKS4_ W 0000000000000112
_ZNSt7__cxx1112basic_stringIcSt11char_traitsIcESaIcEE9_M_createERmm W 00000000000000c5
_ZNSt7__cxx1112basic_stringIcSt11char_traitsIcESaIcEE9_M_lengthEm W 000000000000001b
_ZNSt7__cxx1112basic_stringIcSt11char_traitsIcESaIcEE9_M_mutateEmmPKcm W 0000000000000167
_ZNSt7__cxx1112basic_stringIcSt11char_traitsIcESaIcEEaSEOS4_ W 00000000000002d5
_ZNSt7__cxx1112basic_stringIcSt11char_traitsIcESaIcEEaSEPKc W 0000000000000025
_ZNSt7__cxx1112basic_stringIcSt11char_traitsIcESaIcEEaSERKS4_ W 0000000000000025
_ZNSt7__cxx1112basic_stringIcSt11char_traitsIcESaIcEEaSESt16initializer_listIcE W 000000000000005b
_ZNSt7__cxx1112basic_stringIcSt11char_traitsIcESaIcEEaSISt17basic_string_viewIcS2_EEENSt9enable_ifIXsrSt6__and_IJSt14is_convertibleIRKT_S7_ESt6__not_ISA_IPSC_PKS4_EESF_ISA_ISD_PKcEEEE5valueERS4_E4typeESD_ W 0000000000000025
_ZNSt7__cxx1112basic_stringIcSt11char_traitsIcESaIcEEC1ENS4_12__sv_wrapperERKS3_ W 000000000000005d
_ZNSt7__cxx1112basic_stringIcSt11char_traitsIcESaIcEEC1EPKcmRKS3_ W 000000000000007e
_ZNSt7__cxx1112basic_stringIcSt11char_traitsIcESaIcEEC1ERKS4_ W 00000000000000e4
_ZNSt7__cxx1112basic_stringIcSt11char_traitsIcESaIcEEC1Ev W 0000000000000085
_ZNSt7__cxx1112basic_stringIcSt11char_traitsIcESaIcEEC1IS3_EEPKcRKS3_ W 0000000000000093
_ZNSt7__cxx1112basic_stringIcSt11char_traitsIcESaIcEEC1ISt17basic_string_viewIcS2_EvEERKT_RKS3_ W 0000000000000082
_ZNSt7__cxx1112basic_stringIcSt11char_traitsIcESaIcEEC2ENS4_12__sv_wrapperERKS3_ W 000000000000005d
_ZNSt7__cxx1112basic_stringIcSt11char_traitsIcESaIcEEC2EPKcmRKS3_ W 000000000000007e
_ZNSt7__cxx1112basic_stringIcSt11char_traitsIcESaIcEEC2ERKS4_ W 00000000000000e4
_ZNSt7__cxx1112basic_stringIcSt11char_traitsIcESaIcEEC2Ev W 0000000000000085
_ZNSt7__cxx1112basic_stringIcSt11char_traitsIcESaIcEEC2IS3_EEPKcRKS3_ W 0000000000000093
_ZNSt7__cxx1112basic_stringIcSt11char_traitsIcESaIcEEC2ISt17basic_string_viewIcS2_EvEERKT_RKS3_ W 0000000000000082
_ZNSt7__cxx1112basic_stringIcSt11char_traitsIcESaIcEED1Ev W 0000000000000027
_ZNSt7__cxx1112basic_stringIcSt11char_traitsIcESaIcEED2Ev W 0000000000000027
_ZNSt7__cxx114listIN7sysrepo8PrivDataISt8functionIFNS1_9ErrorCodeENS1_7SessionEjSt17basic_string_viewIcSt11char_traitsIcEEN7libyang8DataNodeENS1_5EventEjSB_EEEESaISF_EED1Ev W 000000000000001b
_ZNSt7__cxx114listIN7sysrepo8PrivDataISt8functionIFNS1_9ErrorCodeENS1_7SessionEjSt17basic_string_viewIcSt11char_traitsIcEEN7libyang8DataNodeENS1_5EventEjSB_EEEESaISF_EED2Ev W 000000000000001b
_ZNSt7__cxx114listIN7sysrepo8PrivDataISt8functionIFNS1_9ErrorCodeENS1_7SessionEjSt17basic_string_viewIcSt11char_traitsIcEESt8optionalIS9_ENS1_5EventEjEEEESaISF_EED1Ev W 000000000000001b
_ZNSt7__cxx114listIN7sysrepo8PrivDataISt8functionIFNS1_9ErrorCodeENS1_7SessionEjSt17basic_string_viewIcSt11char_traitsIcEESt8optionalIS9_ENS1_5EventEjEEEESaISF_EED2Ev W 000000000000001b
_ZNSt7__cxx114listIN7sysrepo8PrivDataISt8functionIFNS1_9ErrorCodeENS1_7SessionEjSt17basic_string_viewIcSt11char_traitsIcEESt8optionalIS9_ESB_jRSA_IN7libyang8DataNodeEEEEEESaISI_EED1Ev W 000000000000001b
_ZNSt7__cxx114listIN7sysrepo8PrivDataISt8functionIFNS1_9ErrorCodeENS1_7SessionEjSt17basic_string_viewIcSt11char_traitsIcEESt8optionalIS9_ESB_jRSA_IN7libyang8DataNodeEEEEEESaISI_EED2Ev W 000000000000001b
_ZNSt7__cxx114listIN7sysrepo8PrivDataISt8functionIFvNS1_7SessionEjNS1_16NotificationTypeESt8optionalIN7libyang8DataNodeEENSt6chrono10time_pointINSA_3_V212system_clockENSA_8durationIlSt5ratioILl1ELl1000000000EEEEEEEEEESaISL_EED1Ev W 000000000000001b
_ZNSt7__cxx114listIN7sysrepo8PrivDataISt8functionIFvNS1_7SessionEjNS1_16NotificationTypeESt8optionalIN7libyang8DataNodeEENSt6chrono10time_pointINSA_3_V212system_clockENSA_8durationIlSt5ratioILl1ELl1000000000EEEEEEEEEESaISL_EED2Ev W 000000000000001b
_ZNSt8functionIFN7sysrepo9ErrorCodeENS0_7SessionEjSt17basic_string_viewIcSt11char_traitsIcEEN7libyang8DataNodeENS0_5EventEjS8_EED1Ev W 000000000000001b
_ZNSt8functionIFN7sysrepo9ErrorCodeENS0_7SessionEjSt17basic_string_viewIcSt11char_traitsIcEEN7libyang8DataNodeENS0_5EventEjS8_EED2Ev W 000000000000001b
_ZNSt8functionIFN7sysrepo9ErrorCodeENS0_7SessionEjSt17basic_string_viewIcSt11char_traitsIcEESt8optionalIS6_ENS0_5EventEjEEC1ERKSB_ W 000000000000008e
_ZNSt8functionIFN7sysrepo9ErrorCodeENS0_7SessionEjSt17basic_string_viewIcSt11char_traitsIcEESt8optionalIS6_ENS0_5EventEjEEC2ERKSB_ W 000000000000008e
_ZNSt8functionIFN7sysrepo9ErrorCodeENS0_7SessionEjSt17basic_string_viewIcSt11char_traitsIcEESt8optionalIS6_ENS0_5EventEjEED1Ev W 000000000000001b
_ZNSt8functionIFN7sysrepo9ErrorCodeENS0_7SessionEjSt17basic_string_viewIcSt11char_traitsIcEESt8optionalIS6_ENS0_5EventEjEED2Ev W 000000000000001b
_ZNSt8functionIFN7sysrepo9ErrorCodeENS0_7SessionEjSt17basic_string_viewIcSt11char_traitsIcEESt8optionalIS6_ES8_jRS7_IN7libyang8DataNodeEEEEC1ERKSE_ W 000000000000008e
_ZNSt8functionIFN7sysrepo9ErrorCodeENS0_7SessionEjSt17basic_string_viewIcSt11char_traitsIcEESt8optionalIS6_ES8_jRS7_IN7libyang8DataNodeEEEEC2ERKSE_ W 000000000000008e
_ZNSt8functionIFN7sysrepo9ErrorCodeENS0_7SessionEjSt17basic_string_viewIcSt11char_traitsIcEESt8optionalIS6_ES8_jRS7_IN7libyang8DataNodeEEEED1Ev W 000000000000001b
_ZNSt8functionIFN7sysrepo9ErrorCodeENS0_7SessionEjSt17basic_string_viewIcSt11char_traitsIcEESt8optionalIS6_ES8_jRS7_IN7libyang8DataNodeEEEED2Ev W 000000000000001b
_ZNSt8functionIFSt8optionalIN7libyang10ModuleInfoEEPKcS5_S5_S5_EED1Ev W 000000000000001b
_ZNSt8functionIFSt8optionalIN7libyang10ModuleInfoEEPKcS5_S5_S5_EED2Ev W 000000000000001b
_ZNSt8functionIFvN7sysrepo7SessionEjNS0_16NotificationTypeESt8optionalIN7libyang8DataNodeEENSt6chrono10time_pointINS7_3_V212system_clockENS7_8durationIlSt5ratioILl1ELl1000000000EEEEEEEED1Ev W 000000000000001b
_ZNSt8functionIFvN7sysrepo7SessionEjNS0_16NotificationTypeESt8optionalIN7libyang8DataNodeEENSt6chrono10time_pointINS7_3_V212system_clockENS7_8durationIlSt5ratioILl1ELl1000000000EEEEEEEED2Ev W 000000000000001b
_ZNSt8functionIFvRSt9exceptionEEC1EDn W 000000000000001f
_ZNSt8functionIFvRSt9exceptionEEC2EDn W 000000000000001f
_ZNSt8functionIFvRSt9exceptionEED1Ev W 000000000000001b
_ZNSt8functionIFvRSt9exceptionEED2Ev W 000000000000001b
_ZNSt8optionalIN7libyang15CreationOptionsEEC1ESt9nullopt_t W 000000000000001b
_ZNSt8optionalIN7libyang15CreationOptionsEEC2ESt9nullopt_t W 000000000000001b
_ZNSt8optionalIN7libyang8DataNodeEEC1ERKS2_ W 0000000000000026
_ZNSt8optionalIN7libyang8DataNodeEEC2ERKS2_ W 0000000000000026
_ZNSt8optionalIN7libyang8DataNodeEED1Ev W 000000000000001b
_ZNSt8optionalIN7libyang8DataNodeEED2Ev W 000000000000001b
_ZNSt8optionalIN7libyang8DataNodeEEptEv W 0000000000000022
_ZNSt8optionalIN7sysrepo12SubscriptionEEaSIS1_EENSt9enable_ifIX7__and_vISt6__not_ISt7is_sameIS2_NSt9remove_cvINSt16remove_referenceIT_E4typeEE4typeEEES5_ISt6__and_IJSt9is_scalarIS1_ES6_IS1_NSt5decayIS9_E4typeEEEEESt16is_constructibleIS1_JS9_EESt13is_assignableIRS1_S9_EEERS2_E4typeEOS9_ W 0000000000000071
_ZNSt8optionalIN7sysrepo12SubscriptionEEC1Ev W 000000000000001b
_ZNSt8optionalIN7sysrepo12SubscriptionEEC2Ev W 000000000000001b
_ZNSt8optionalIN7sysrepo12SubscriptionEED1Ev W 000000000000001b
_ZNSt8optionalIN7sysrepo12SubscriptionEED2Ev W 000000000000001b
_ZNSt8optionalIN7sysrepo6ChangeEED1Ev W 000000000000001b
_ZNSt8optionalIN7sysrepo6ChangeEED2Ev W 000000000000001b
_ZNSt9_Any_data9_M_accessEv W 000000000000000e
_ZNSt9_Any_data9_M_accessIPKSt9type_infoEERT_v W 000000000000001a
_ZNSt9exceptionC1Ev W 000000000000001d
_ZNSt9exceptionC2Ev W 000000000000001d
_ZnwmPv W 0000000000000012
_ZSt10destroy_atIN7sysrepo8PrivDataISt8functionIFNS0_9ErrorCodeENS0_7SessionEjSt17basic_string_viewIcSt11char_traitsIcEEN7libyang8DataNodeENS0_5EventEjSA_EEEEEvPT_ W 000000000000001b
_ZSt10destroy_atIN7sysrepo8PrivDataISt8functionIFNS0_9ErrorCodeENS0_7SessionEjSt17basic_string_viewIcSt11char_traitsIcEESt8optionalIS8_ENS0_5EventEjEEEEEvPT_ W 000000000000001b
_ZSt10destroy_atIN7sysrepo8PrivDataISt8functionIFNS0_9ErrorCodeENS0_7SessionEjSt17basic_string_viewIcSt11char_traitsIcEESt8optionalIS8_ESA_jRS9_IN7libyang8DataNodeEEEEEEEvPT_ W 000000000000001b
_ZSt10destroy_atIN7sysrepo8PrivDataISt8functionIFvNS0_7SessionEjNS0_16NotificationTypeESt8optionalIN7libyang8DataNodeEENSt6chrono10time_pointINS9_3_V212system_clockENS9_8durationIlSt5ratioILl1ELl1000000000EEEEEEEEEEEvPT_ W 000000000000001b
_ZSt10__distanceIPcENSt15iterator_traitsIT_E15difference_typeES2_S2_St26random_access_iterator_tag W 0000000000000016
_ZSt10__distanceIPKcENSt15iterator_traitsIT_E15difference_typeES3_S3_St26random_access_iterator_tag W 0000000000000016
_ZSt11__addressofIcEPT_RS0_ W 000000000000000e
_ZSt11__addressofIKcEPT_RS1_ W 000000000000000e
_ZSt11__addressofIN7libyang8DataNodeEEPT_RS2_ W 000000000000000e
_ZSt11__addressofINSt22_Optional_payload_baseIN7libyang8DataNodeEE8_StorageIS2_Lb0EEEEPT_RS6_ W 000000000000000e
_ZSt11__addressofINSt22_Optional_payload_baseIN7sysrepo12SubscriptionEE8_StorageIS2_Lb0EEEEPT_RS6_ W 000000000000000e
_ZSt11make_uniqueI12NetConfAgentJEENSt9_MakeUniqIT_E15__single_objectEDpOT0_ W 000000000000005e
_ZSt12__get_helperILm0EP12NetConfAgentJSt14default_deleteIS0_EEERT0_RSt11_Tuple_implIXT_EJS4_DpT1_EE W 000000000000001a
_ZSt12__get_helperILm0EP13INetConfAgentJSt14default_deleteIS0_EEERKT0_RKSt11_Tuple_implIXT_EJS4_DpT1_EE W 000000000000001a
_ZSt12__get_helperILm0EP13INetConfAgentJSt14default_deleteIS0_EEERT0_RSt11_Tuple_implIXT_EJS4_DpT1_EE W 000000000000001a
_ZSt12__get_helperILm1ESt14default_deleteI12NetConfAgentEJEERT0_RSt11_Tuple_implIXT_EJS3_DpT1_EE W 000000000000001a
_ZSt12__get_helperILm1ESt14default_deleteI13INetConfAgentEJEERT0_RSt11_Tuple_implIXT_EJS3_DpT1_EE W 000000000000001a
_ZSt12__miter_baseIPKcET_S2_ W 000000000000000e
_ZSt12__niter_baseIPcET_S1_ W 000000000000000e
_ZSt12__niter_baseIPKcET_S2_ W 000000000000000e
_ZSt12__niter_wrapIPcET_RKS1_S1_ W 0000000000000012
_ZSt13copy_backwardIPKcPcET0_T_S4_S3_ W 000000000000004b
_ZSt13__copy_move_aILb0EPKcPcET1_T0_S4_S3_ W 000000000000006a
_ZSt14__copy_move_a1ILb0EPKcPcET1_T0_S4_S3_ W 000000000000002d
_ZSt14__copy_move_a2ILb0EPKcPcET1_T0_S4_S3_ W 0000000000000050
_ZSt15__alloc_on_copyISaIcEEvRT_RKS1_ W 000000000000000f
_ZSt15__alloc_on_moveISaIcEEvRT_S2_ W 000000000000001f
_ZSt19__iterator_categoryIPcENSt15iterator_traitsIT_E17iterator_categoryERKS2_ W 000000000000000a
_ZSt19__iterator_categoryIPKcENSt15iterator_traitsIT_E17iterator_categoryERKS3_ W 000000000000000a
_ZSt21is_constant_evaluatedv W 000000000000000b
_ZSt22__copy_move_backward_aILb0EPKcPcET1_T0_S4_S3_ W 000000000000006a
_ZSt23__copy_move_backward_a1ILb0EPKcPcET1_T0_S4_S3_ W 000000000000002d
_ZSt23__copy_move_backward_a2ILb0EPKcPcET1_T0_S4_S3_ W 0000000000000050
_ZSt27__throw_bad_optional_accessv W 0000000000000041
_ZSt3getILm0EJP12NetConfAgentSt14default_deleteIS0_EEERNSt13tuple_elementIXT_ESt5tupleIJDpT0_EEE4typeERS8_ W 000000000000001a
_ZSt3getILm0EJP13INetConfAgentSt14default_deleteIS0_EEERKNSt13tuple_elementIXT_ESt5tupleIJDpT0_EEE4typeERKS8_ W 000000000000001a
_ZSt3getILm0EJP13INetConfAgentSt14default_deleteIS0_EEERNSt13tuple_elementIXT_ESt5tupleIJDpT0_EEE4typeERS8_ W 000000000000001a
_ZSt3getILm1EJP12NetConfAgentSt14default_deleteIS0_EEERNSt13tuple_elementIXT_ESt5tupleIJDpT0_EEE4typeERS8_ W 000000000000001a
_ZSt3getILm1EJP13INetConfAgentSt14default_deleteIS0_EEERNSt13tuple_elementIXT_ESt5tupleIJDpT0_EEE4typeERS8_ W 000000000000001a
_ZSt3minImERKT_S2_S2_ W 000000000000002b
_ZSt4copyIPKcPcET0_T_S4_S3_ W 000000000000004b
_ZSt4moveIRN7libyang8DataNodeEEONSt16remove_referenceIT_E4typeEOS4_ W 000000000000000e
_ZSt4moveIRP12NetConfAgentEONSt16remove_referenceIT_E4typeEOS4_ W 000000000000000e
_ZSt4moveIRP13INetConfAgentEONSt16remove_referenceIT_E4typeEOS4_ W 000000000000000e
_ZSt4moveIRSaIcEEONSt16remove_referenceIT_E4typeEOS3_ W 000000000000000e
_ZSt4moveIRSt10shared_ptrI16sr_session_ctx_sEEONSt16remove_referenceIT_E4typeEOS5_ W 000000000000000e
_ZSt4moveIRSt10unique_ptrI13INetConfAgentSt14default_deleteIS1_EEEONSt16remove_referenceIT_E4typeEOS7_ W 000000000000000e
_ZSt4moveIRSt11_Tuple_implILm1EJSt14default_deleteI13INetConfAgentEEEEONSt16remove_referenceIT_E4typeEOS7_ W 000000000000000e
_ZSt4moveIRSt5tupleIJP13INetConfAgentSt14default_deleteIS1_EEEEONSt16remove_referenceIT_E4typeEOS8_ W 000000000000000e
_ZSt7forwardIjEOT_RNSt16remove_referenceIS0_E4typeE W 000000000000000e
_ZSt7forwardIN7sysrepo12SubscriptionEEOT_RNSt16remove_referenceIS2_E4typeE W 000000000000000e
_ZSt7forwardIN7sysrepo5EventEEOT_RNSt16remove_referenceIS2_E4typeE W 000000000000000e
_ZSt7forwardIN7sysrepo7SessionEEOT_RNSt16remove_referenceIS2_E4typeE W 000000000000000e
_ZSt7forwardIP13INetConfAgentEOT_RNSt16remove_referenceIS2_E4typeE W 000000000000000e
_ZSt7forwardIRKN7libyang8DataNodeEEOT_RNSt16remove_referenceIS4_E4typeE W 000000000000000e
_ZSt7forwardIRP13INetConfAgentEOT_RNSt16remove_referenceIS3_E4typeE W 000000000000000e
_ZSt7forwardIRSt8optionalIN7libyang8DataNodeEEEOT_RNSt16remove_referenceIS5_E4typeE W 000000000000000e
_ZSt7forwardISt14default_deleteI12NetConfAgentEEOT_RNSt16remove_referenceIS3_E4typeE W 000000000000000e
_ZSt7forwardISt14default_deleteI13INetConfAgentEEOT_RNSt16remove_referenceIS3_E4typeE W 000000000000000e
_ZSt7forwardISt17basic_string_viewIcSt11char_traitsIcEEEOT_RNSt16remove_referenceIS4_E4typeE W 000000000000000e
_ZSt7forwardISt8optionalISt17basic_string_viewIcSt11char_traitsIcEEEEOT_RNSt16remove_referenceIS6_E4typeE W 000000000000000e
_ZSt8distanceIPcENSt15iterator_traitsIT_E15difference_typeES2_S2_ W 0000000000000031
_ZSt8distanceIPKcENSt15iterator_traitsIT_E15difference_typeES3_S3_ W 0000000000000031
_ZSt9addressofIcEPT_RS0_ W 000000000000001a
_ZSt9addressofIKcEPT_RS1_ W 000000000000001a
_ZSteqIcSt11char_traitsIcESaIcEEbRKNSt7__cxx1112basic_stringIT_T0_T1_EEPKS5_ W 000000000000002a
_ZSteqRKSaIcES1_ W 0000000000000013
_ZTI12NetConfAgent V 0000000000000018
_ZTI13INetConfAgent V 0000000000000010
_ZTISt19bad_optional_access V 0000000000000018
_ZTS12NetConfAgent V 000000000000000f
_ZTS13INetConfAgent V 0000000000000010
_ZTSSt19bad_optional_access V 0000000000000018
_ZTV12NetConfAgent V 0000000000000048
_ZTV13INetConfAgent V 0000000000000048
_ZTVSt19bad_optional_access V 0000000000000028
